ccopy_reg
_reconstructor
p0
(c__main__
DataBaseBank
p1
c__builtin__
object
p2
Ntp3
Rp4
(dp5
S'_DataBaseBank__globalLock'
p6
(iglobalLock
GlobalLock
p7
(dp8
S'_GlobalLock__lock'
p9
NsS'_GlobalLock__entitys'
p10
(dp11
sbsS'_DataBaseBank__accounts'
p12
(dp13
S'1'
p14
(dp15
S'AdateOfBegin'
p16
F1289839651.010078
sS'Aamount'
p17
F150.0
sS'Aclient'
p18
NssS'0'
p19
(dp20
g16
F1289839651.010057
sg17
F150.0
sg18
NsssS'_DataBaseBank__updates'
p21
(dp22
g14
(lp23
(dp24
S'Utype'
p25
S'CREDIT'
p26
sS'Ufrom'
p27
S'Acount Opening'
p28
sS'Uamount'
p29
F200.0
sS'Cid'
p30
Nsa(dp31
g25
S'DEBIT'
p32
sg27
S'unknown'
p33
sg29
F50.0
sg30
Nsasg19
(lp34
(dp35
g25
S'CREDIT'
p36
sg27
g28
sg29
F100.0
sg30
Nsa(dp37
g25
S'CREDIT'
p38
sg27
g33
sg29
F50.0
sg30
NsassS'_DataBaseBank__clients'
p39
(dp40
sS'_VectorStamps__vectorStamps'
p41
(lp42
I6
asS'_VectorStamps__index'
p43
I0
sb.